target datalayout = "e-m:e-p270:32:32-p271:32:32-p272:64:64-i64:64-i128:128-f80:128-n8:16:32:64-S128"
target triple = "x86_64-pc-linux-gnu"

%struct._zend_array = type { %struct._zend_refcounted_h, %union.anon.4, i32, %union.anon.6, i32, i32, i32, i32, i64, ptr }
%struct._zend_refcounted_h = type { i32, %union.anon.3 }
%union.anon.3 = type { i32 }
%union.anon.4 = type { i32 }
%union.anon.6 = type { ptr }
%struct._zval_struct = type { %union._zend_value, %union.anon, %union.anon.2 }
%union._zend_value = type { i64 }
%union.anon = type { i32 }
%union.anon.2 = type { i32 }

@pdo_driver_hash = hidden global %struct._zend_array zeroinitializer, align 8

; Function Attrs: alwaysinline nounwind uwtable
define internal ptr @zend_hash_str_find_ptr(ptr noundef %0, ptr noundef %1, i64 noundef %2) #5 {
  %4 = alloca ptr, align 8
  %5 = alloca ptr, align 8
  %6 = alloca ptr, align 8
  %7 = alloca i64, align 8
  %8 = alloca ptr, align 8
  %9 = alloca i32, align 4
  store ptr %0, ptr %5, align 8, !tbaa !16
  store ptr %1, ptr %6, align 8, !tbaa !31
  store i64 %2, ptr %7, align 8, !tbaa !33
  call void @llvm.lifetime.start.p0(i64 8, ptr %8) #14
  %10 = load ptr, ptr %5, align 8, !tbaa !16
  %11 = load ptr, ptr %6, align 8, !tbaa !31
  %12 = load i64, ptr %7, align 8, !tbaa !33
  %13 = call ptr @zend_hash_str_find(ptr noundef %10, ptr noundef %11, i64 noundef %12)
  store ptr %13, ptr %8, align 8, !tbaa !13
  %14 = load ptr, ptr %8, align 8, !tbaa !13
  %15 = icmp ne ptr %14, null
  br i1 %15, label %16, label %24

16:                                               ; preds = %3
  %17 = load ptr, ptr %8, align 8, !tbaa !13
  %18 = getelementptr inbounds nuw %struct._zval_struct, ptr %17, i32 0, i32 0
  %19 = load ptr, ptr %18, align 8, !tbaa !15
  %20 = icmp ne ptr %19, null
  call void @llvm.assume(i1 %20)
  %21 = load ptr, ptr %8, align 8, !tbaa !13
  %22 = getelementptr inbounds nuw %struct._zval_struct, ptr %21, i32 0, i32 0
  %23 = load ptr, ptr %22, align 8, !tbaa !15
  store ptr %23, ptr %4, align 8
  store i32 1, ptr %9, align 4
  br label %25

24:                                               ; preds = %3
  store ptr null, ptr %4, align 8
  store i32 1, ptr %9, align 4
  br label %25

25:                                               ; preds = %24, %16
  call void @llvm.lifetime.end.p0(i64 8, ptr %8) #14
  %26 = load ptr, ptr %4, align 8
  ret ptr %26
}

; Function Attrs: nounwind uwtable
define hidden ptr @pdo_find_driver(ptr noundef %0, i32 noundef %1) #0 {
  %3 = alloca ptr, align 8
  %4 = alloca i32, align 4
  store ptr %0, ptr %3, align 8, !tbaa !31
  store i32 %1, ptr %4, align 4, !tbaa !4
  %5 = load ptr, ptr %3, align 8, !tbaa !31
  %6 = load i32, ptr %4, align 4, !tbaa !4
  %7 = sext i32 %6 to i64
  %8 = call ptr @zend_hash_str_find_ptr(ptr noundef @pdo_driver_hash, ptr noundef %5, i64 noundef %7)
  ret ptr %8
}