; Function Attrs: nounwind uwtable
define hidden noundef ptr @pdo_find_driver(ptr noundef %0, i32 noundef %1) local_unnamed_addr #1 {
  %3 = sext i32 %1 to i64
  %4 = tail call ptr @zend_hash_str_find(ptr noundef nonnull @pdo_driver_hash, ptr noundef %0, i64 noundef range(i64 -2147483648, 2147483648) %3) #13
  %.not.i = icmp eq ptr %4, null
  br i1 %.not.i, label %zend_hash_str_find_ptr.exit, label %5

5:                                                ; preds = %2
  %6 = load ptr, ptr %4, align 8, !tbaa !11, !nonnull !51, !noundef !51
  br label %zend_hash_str_find_ptr.exit

zend_hash_str_find_ptr.exit:                      ; preds = %2, %5
  %.0.i = phi ptr [ %6, %5 ], [ null, %2 ]
  ret ptr %.0.i
}